SF:/home/sysgrim/Projects/rust/piper_female/src/assistant/config.rs
FN:10,_RNvNtNtCsasNlxsNnfyL_9Assistant9assistant6config14default_config
FN:28,_RNvNtNtCsasNlxsNnfyL_9Assistant9assistant6config17get_ollama_config
FN:14,_RNvNtNtCsasNlxsNnfyL_9Assistant9assistant6config21load_or_create_config
FNDA:0,_RNvNtNtCsasNlxsNnfyL_9Assistant9assistant6config14default_config
FNDA:0,_RNvNtNtCsasNlxsNnfyL_9Assistant9assistant6config17get_ollama_config
FNDA:0,_RNvNtNtCsasNlxsNnfyL_9Assistant9assistant6config21load_or_create_config
FNF:3
FNH:0
DA:10,0
DA:11,0
DA:12,0
DA:14,0
DA:15,0
DA:16,0
DA:17,0
DA:18,0
DA:19,0
DA:21,0
DA:22,0
DA:23,0
DA:24,0
DA:26,0
DA:28,0
DA:29,0
DA:30,0
BRF:0
BRH:0
LF:17
LH:0
end_of_record
SF:/home/sysgrim/Projects/rust/piper_female/src/assistant/conversation.rs
FN:30,_RNCNvMNtNtCsasNlxsNnfyL_9Assistant9assistant12conversationNtB4_9Assistant3run0B8_
FN:49,_RNvMNtNtCsasNlxsNnfyL_9Assistant9assistant12conversationNtB2_9Assistant14listen_to_user
FN:59,_RNvMNtNtCsasNlxsNnfyL_9Assistant9assistant12conversationNtB2_9Assistant14speak_response
FN:19,_RNvMNtNtCsasNlxsNnfyL_9Assistant9assistant12conversationNtB2_9Assistant3new
FN:30,_RNvMNtNtCsasNlxsNnfyL_9Assistant9assistant12conversationNtB2_9Assistant3run
FNDA:0,_RNCNvMNtNtCsasNlxsNnfyL_9Assistant9assistant12conversationNtB4_9Assistant3run0B8_
FNDA:0,_RNvMNtNtCsasNlxsNnfyL_9Assistant9assistant12conversationNtB2_9Assistant14listen_to_user
FNDA:0,_RNvMNtNtCsasNlxsNnfyL_9Assistant9assistant12conversationNtB2_9Assistant14speak_response
FNDA:0,_RNvMNtNtCsasNlxsNnfyL_9Assistant9assistant12conversationNtB2_9Assistant3new
FNDA:0,_RNvMNtNtCsasNlxsNnfyL_9Assistant9assistant12conversationNtB2_9Assistant3run
FNF:5
FNH:0
DA:19,0
DA:20,0
DA:21,0
DA:22,0
DA:23,0
DA:24,0
DA:25,0
DA:26,0
DA:27,0
DA:28,0
DA:30,0
DA:31,0
DA:32,0
DA:34,0
DA:35,0
DA:36,0
DA:37,0
DA:38,0
DA:39,0
DA:40,0
DA:41,0
DA:42,0
DA:43,0
DA:44,0
DA:46,0
DA:47,0
DA:49,0
DA:50,0
DA:51,0
DA:52,0
DA:53,0
DA:54,0
DA:55,0
DA:56,0
DA:57,0
DA:59,0
DA:60,0
DA:61,0
DA:62,0
BRF:0
BRH:0
LF:40
LH:0
end_of_record
SF:/home/sysgrim/Projects/rust/piper_female/src/assistant/llm.rs
FN:6,_RNvNtNtCsasNlxsNnfyL_9Assistant9assistant3llm15call_ollama_api
FN:12,_RNCNCNvNtNtCsasNlxsNnfyL_9Assistant9assistant3llm15call_ollama_api00B9_
FN:39,_RNCNCNvNtNtCsasNlxsNnfyL_9Assistant9assistant3llm15call_ollama_api0s0_0B9_
FN:38,_RNCNCNvNtNtCsasNlxsNnfyL_9Assistant9assistant3llm15call_ollama_api0s_0B9_
FN:6,_RNCNvNtNtCsasNlxsNnfyL_9Assistant9assistant3llm15call_ollama_api0B7_
FNDA:0,_RNvNtNtCsasNlxsNnfyL_9Assistant9assistant3llm15call_ollama_api
FNDA:0,_RNCNCNvNtNtCsasNlxsNnfyL_9Assistant9assistant3llm15call_ollama_api00B9_
FNDA:0,_RNCNCNvNtNtCsasNlxsNnfyL_9Assistant9assistant3llm15call_ollama_api0s0_0B9_
FNDA:0,_RNCNCNvNtNtCsasNlxsNnfyL_9Assistant9assistant3llm15call_ollama_api0s_0B9_
FNDA:0,_RNCNvNtNtCsasNlxsNnfyL_9Assistant9assistant3llm15call_ollama_api0B7_
FNF:5
FNH:0
DA:6,0
DA:7,0
DA:8,0
DA:10,0
DA:11,0
DA:12,0
DA:13,0
DA:15,0
DA:16,0
DA:17,0
DA:18,0
DA:21,0
DA:22,0
DA:23,0
DA:24,0
DA:25,0
DA:26,0
DA:27,0
DA:29,0
DA:30,0
DA:31,0
DA:32,0
DA:33,0
DA:35,0
DA:36,0
DA:37,0
DA:38,0
DA:39,0
DA:40,0
DA:41,0
DA:43,0
DA:44,0
BRF:0
BRH:0
LF:36
LH:0
end_of_record
SF:/home/sysgrim/Projects/rust/piper_female/src/main.rs
FN:17,_RNCNvCsasNlxsNnfyL_9Assistant12init_tracing0B3_
FN:22,_RNCNvCsasNlxsNnfyL_9Assistant4main0B3_
FN:15,_RNvCsasNlxsNnfyL_9Assistant12init_tracing
FN:22,_RNvCsasNlxsNnfyL_9Assistant4main
FNDA:0,_RNCNvCsasNlxsNnfyL_9Assistant12init_tracing0B3_
FNDA:0,_RNCNvCsasNlxsNnfyL_9Assistant4main0B3_
FNDA:0,_RNvCsasNlxsNnfyL_9Assistant12init_tracing
FNDA:0,_RNvCsasNlxsNnfyL_9Assistant4main
FNF:4
FNH:0
DA:15,0
DA:16,0
DA:17,0
DA:18,0
DA:19,0
DA:22,0
DA:23,0
DA:24,0
DA:26,0
DA:27,0
DA:28,0
DA:29,0
DA:30,0
DA:31,0
DA:32,0
DA:33,0
DA:34,0
DA:35,0
DA:36,0
DA:37,0
DA:38,0
DA:39,0
DA:40,0
DA:41,0
DA:42,0
DA:43,0
DA:44,0
DA:45,0
DA:46,0
DA:47,0
DA:48,0
DA:49,0
DA:50,0
DA:51,0
DA:52,0
BRF:0
BRH:0
LF:55
LH:0
end_of_record
SF:/home/sysgrim/Projects/rust/piper_female/src/stt/audio.rs
FN:11,_RNvMNtNtCsasNlxsNnfyL_9Assistant3stt5audioNtB2_11AudioConfig11from_device
FNDA:0,_RNvMNtNtCsasNlxsNnfyL_9Assistant3stt5audioNtB2_11AudioConfig11from_device
FNF:1
FNH:0
DA:11,0
DA:12,0
DA:13,0
DA:14,0
DA:15,0
DA:17,0
DA:18,0
DA:19,0
DA:21,0
DA:22,0
DA:24,0
DA:25,0
DA:26,0
DA:27,0
DA:28,0
DA:29,0
BRF:0
BRH:0
LF:16
LH:0
end_of_record
SF:/home/sysgrim/Projects/rust/piper_female/src/stt/io.rs
FN:4,_RNvNtNtCsasNlxsNnfyL_9Assistant3stt2io10wait_enter
FNDA:0,_RNvNtNtCsasNlxsNnfyL_9Assistant3stt2io10wait_enter
FNF:1
FNH:0
DA:4,0
DA:5,0
DA:6,0
DA:7,0
DA:8,0
BRF:0
BRH:0
LF:5
LH:0
end_of_record
SF:/home/sysgrim/Projects/rust/piper_female/src/stt/recorder.rs
FN:92,_RNCNvNtNtCsasNlxsNnfyL_9Assistant3stt8recorder17record_f32_stream0B7_
FN:103,_RNCNvNtNtCsasNlxsNnfyL_9Assistant3stt8recorder17record_f32_streams_0B7_
FN:60,_RNCNvNtNtCsasNlxsNnfyL_9Assistant3stt8recorder17record_i16_stream0B7_
FN:69,_RNCNvNtNtCsasNlxsNnfyL_9Assistant3stt8recorder17record_i16_streams_0B7_
FN:8,_RNvNtNtCsasNlxsNnfyL_9Assistant3stt8recorder13record_to_wav
FN:84,_RNvNtNtCsasNlxsNnfyL_9Assistant3stt8recorder17record_f32_stream
FN:52,_RNvNtNtCsasNlxsNnfyL_9Assistant3stt8recorder17record_i16_stream
FNDA:0,_RNCNvNtNtCsasNlxsNnfyL_9Assistant3stt8recorder17record_f32_stream0B7_
FNDA:0,_RNCNvNtNtCsasNlxsNnfyL_9Assistant3stt8recorder17record_f32_streams_0B7_
FNDA:0,_RNCNvNtNtCsasNlxsNnfyL_9Assistant3stt8recorder17record_i16_stream0B7_
FNDA:0,_RNCNvNtNtCsasNlxsNnfyL_9Assistant3stt8recorder17record_i16_streams_0B7_
FNDA:0,_RNvNtNtCsasNlxsNnfyL_9Assistant3stt8recorder13record_to_wav
FNDA:0,_RNvNtNtCsasNlxsNnfyL_9Assistant3stt8recorder17record_f32_stream
FNDA:0,_RNvNtNtCsasNlxsNnfyL_9Assistant3stt8recorder17record_i16_stream
FNF:7
FNH:0
DA:8,0
DA:9,0
DA:10,0
DA:11,0
DA:12,0
DA:14,0
DA:15,0
DA:16,0
DA:18,0
DA:20,0
DA:21,0
DA:22,0
DA:23,0
DA:24,0
DA:25,0
DA:27,0
DA:29,0
DA:31,0
DA:33,0
DA:36,0
DA:38,0
DA:39,0
DA:43,0
DA:44,0
DA:45,0
DA:46,0
DA:47,0
DA:49,0
DA:50,0
DA:52,0
DA:53,0
DA:54,0
DA:55,0
DA:56,0
DA:57,0
DA:58,0
DA:59,0
DA:60,0
DA:61,0
DA:62,0
DA:63,0
DA:64,0
DA:65,0
DA:66,0
DA:67,0
DA:68,0
DA:69,0
DA:70,0
DA:71,0
DA:72,0
DA:74,0
DA:76,0
DA:77,0
DA:78,0
DA:79,0
DA:81,0
DA:82,0
DA:84,0
DA:85,0
DA:86,0
DA:87,0
DA:88,0
DA:89,0
DA:90,0
DA:91,0
DA:92,0
DA:93,0
DA:94,0
DA:95,0
DA:96,0
DA:97,0
DA:98,0
DA:99,0
DA:100,0
DA:101,0
DA:102,0
DA:103,0
DA:104,0
DA:105,0
DA:106,0
DA:108,0
DA:110,0
DA:111,0
DA:112,0
DA:113,0
DA:115,0
DA:116,0
BRF:0
BRH:0
LF:87
LH:0
end_of_record
SF:/home/sysgrim/Projects/rust/piper_female/src/stt/transcriber.rs
FN:17,_RNCNvNtNtCsasNlxsNnfyL_9Assistant3stt11transcriber23transcribe_with_whisper0B7_
FN:61,_RNvNtNtCsasNlxsNnfyL_9Assistant3stt11transcriber18read_transcription
FN:34,_RNvNtNtCsasNlxsNnfyL_9Assistant3stt11transcriber19find_whisper_binary
FN:5,_RNvNtNtCsasNlxsNnfyL_9Assistant3stt11transcriber23transcribe_with_whisper
FNDA:0,_RNCNvNtNtCsasNlxsNnfyL_9Assistant3stt11transcriber23transcribe_with_whisper0B7_
FNDA:0,_RNvNtNtCsasNlxsNnfyL_9Assistant3stt11transcriber18read_transcription
FNDA:0,_RNvNtNtCsasNlxsNnfyL_9Assistant3stt11transcriber19find_whisper_binary
FNDA:0,_RNvNtNtCsasNlxsNnfyL_9Assistant3stt11transcriber23transcribe_with_whisper
FNF:4
FNH:0
DA:5,0
DA:6,0
DA:7,0
DA:8,0
DA:9,0
DA:10,0
DA:11,0
DA:12,0
DA:14,0
DA:15,0
DA:16,0
DA:17,0
DA:19,0
DA:20,0
DA:21,0
DA:22,0
DA:23,0
DA:25,0
DA:26,0
DA:27,0
DA:28,0
DA:29,0
DA:31,0
DA:32,0
DA:34,0
DA:35,0
DA:36,0
DA:37,0
DA:39,0
DA:40,0
DA:43,0
DA:44,0
DA:45,0
DA:47,0
DA:48,0
DA:51,0
DA:52,0
DA:53,0
DA:54,0
DA:56,0
DA:57,0
DA:59,0
DA:61,0
DA:62,0
DA:64,0
DA:65,0
DA:66,0
DA:67,0
DA:68,0
DA:69,0
DA:70,0
DA:71,0
DA:72,0
DA:74,0
DA:75,0
DA:77,0
DA:78,0
DA:79,0
BRF:0
BRH:0
LF:59
LH:0
end_of_record
SF:/home/sysgrim/Projects/rust/piper_female/src/tts/kokoro.rs
FN:73,_RNCNvMNtNtCsasNlxsNnfyL_9Assistant3tts6kokoroNtB4_9KokoroTts16setup_pythonpath0B8_
FN:78,_RNCNvMNtNtCsasNlxsNnfyL_9Assistant3tts6kokoroNtB4_9KokoroTts16setup_pythonpaths0_0B8_
FN:83,_RNCNvMNtNtCsasNlxsNnfyL_9Assistant3tts6kokoroNtB4_9KokoroTts16setup_pythonpaths1_0B8_
FN:74,_RNCNvMNtNtCsasNlxsNnfyL_9Assistant3tts6kokoroNtB4_9KokoroTts16setup_pythonpaths_0B8_
FN:16,_RNCNvMNtNtCsasNlxsNnfyL_9Assistant3tts6kokoroNtB4_9KokoroTts3new0B8_
FN:38,_RNCNvMNtNtCsasNlxsNnfyL_9Assistant3tts6kokoroNtB4_9KokoroTts5speak0B8_
FN:58,_RNvMNtNtCsasNlxsNnfyL_9Assistant3tts6kokoroNtB2_9KokoroTts16setup_pythonpath
FN:47,_RNvMNtNtCsasNlxsNnfyL_9Assistant3tts6kokoroNtB2_9KokoroTts17play_pcm_blocking
FN:31,_RNvMNtNtCsasNlxsNnfyL_9Assistant3tts6kokoroNtB2_9KokoroTts23speak_and_play_blocking
FN:13,_RNvMNtNtCsasNlxsNnfyL_9Assistant3tts6kokoroNtB2_9KokoroTts3new
FN:37,_RNvMNtNtCsasNlxsNnfyL_9Assistant3tts6kokoroNtB2_9KokoroTts5speak
FNDA:0,_RNCNvMNtNtCsasNlxsNnfyL_9Assistant3tts6kokoroNtB4_9KokoroTts16setup_pythonpath0B8_
FNDA:0,_RNCNvMNtNtCsasNlxsNnfyL_9Assistant3tts6kokoroNtB4_9KokoroTts16setup_pythonpaths0_0B8_
FNDA:0,_RNCNvMNtNtCsasNlxsNnfyL_9Assistant3tts6kokoroNtB4_9KokoroTts16setup_pythonpaths1_0B8_
FNDA:0,_RNCNvMNtNtCsasNlxsNnfyL_9Assistant3tts6kokoroNtB4_9KokoroTts16setup_pythonpaths_0B8_
FNDA:0,_RNCNvMNtNtCsasNlxsNnfyL_9Assistant3tts6kokoroNtB4_9KokoroTts3new0B8_
FNDA:0,_RNCNvMNtNtCsasNlxsNnfyL_9Assistant3tts6kokoroNtB4_9KokoroTts5speak0B8_
FNDA:0,_RNvMNtNtCsasNlxsNnfyL_9Assistant3tts6kokoroNtB2_9KokoroTts16setup_pythonpath
FNDA:0,_RNvMNtNtCsasNlxsNnfyL_9Assistant3tts6kokoroNtB2_9KokoroTts17play_pcm_blocking
FNDA:0,_RNvMNtNtCsasNlxsNnfyL_9Assistant3tts6kokoroNtB2_9KokoroTts23speak_and_play_blocking
FNDA:0,_RNvMNtNtCsasNlxsNnfyL_9Assistant3tts6kokoroNtB2_9KokoroTts3new
FNDA:0,_RNvMNtNtCsasNlxsNnfyL_9Assistant3tts6kokoroNtB2_9KokoroTts5speak
FNF:11
FNH:0
DA:13,0
DA:14,0
DA:16,0
DA:18,0
DA:19,0
DA:22,0
DA:24,0
DA:25,0
DA:26,0
DA:27,0
DA:28,0
DA:31,0
DA:32,0
DA:33,0
DA:34,0
DA:37,0
DA:38,0
DA:39,0
DA:40,0
DA:41,0
DA:42,0
DA:43,0
DA:44,0
DA:47,0
DA:48,0
DA:49,0
DA:51,0
DA:52,0
DA:53,0
DA:54,0
DA:55,0
DA:58,0
DA:62,0
DA:63,0
DA:65,0
DA:66,0
DA:68,0
DA:69,0
DA:71,0
DA:72,0
DA:73,0
DA:74,0
DA:75,0
DA:78,0
DA:79,0
DA:80,0
DA:82,0
DA:83,0
DA:84,0
DA:85,0
DA:87,0
DA:89,0
DA:90,0
DA:91,0
DA:92,0
DA:93,0
BRF:0
BRH:0
LF:62
LH:0
end_of_record
SF:/home/sysgrim/Projects/rust/piper_female/src/ui.rs
FN:4,_RNvNtCsasNlxsNnfyL_9Assistant2ui13print_colored
FN:16,_RNvNtCsasNlxsNnfyL_9Assistant2ui4info
FN:14,_RNvNtCsasNlxsNnfyL_9Assistant2ui4warn
FN:15,_RNvNtCsasNlxsNnfyL_9Assistant2ui5error
FN:13,_RNvNtCsasNlxsNnfyL_9Assistant2ui7success
FNDA:0,_RNvNtCsasNlxsNnfyL_9Assistant2ui13print_colored
FNDA:0,_RNvNtCsasNlxsNnfyL_9Assistant2ui4info
FNDA:0,_RNvNtCsasNlxsNnfyL_9Assistant2ui4warn
FNDA:0,_RNvNtCsasNlxsNnfyL_9Assistant2ui5error
FNDA:0,_RNvNtCsasNlxsNnfyL_9Assistant2ui7success
FNF:5
FNH:0
DA:4,0
DA:5,0
DA:6,0
DA:7,0
DA:8,0
DA:9,0
DA:10,0
DA:11,0
DA:13,0
DA:14,0
DA:15,0
DA:16,0
BRF:0
BRH:0
LF:12
LH:0
end_of_record